; Function Attrs: nounwind uwtable
define dso_local void @sema_unwrap_var(ptr nocapture noundef %0, ptr noundef %1) local_unnamed_addr #2 {
  %3 = tail call noundef ptr @vmem_alloc(ptr noundef nonnull @decl_arena, i64 noundef 136) #10
  tail call void @llvm.memcpy.p0.p0.i64(ptr noundef nonnull align 8 dereferenceable(136) %3, ptr noundef nonnull align 8 dereferenceable(136) %1, i64 136, i1 false)
  %4 = getelementptr inbounds i8, ptr %3, i64 80
  %5 = load i32, ptr %4, align 8
  %6 = and i32 %5, -256
  %7 = or disjoint i32 %6, 8
  store i32 %7, ptr %4, align 8
  %8 = getelementptr inbounds i8, ptr %3, i64 88
  store ptr %1, ptr %8, align 8
  %9 = getelementptr inbounds i8, ptr %3, i64 72
  %10 = load ptr, ptr %9, align 8
  %11 = getelementptr inbounds i8, ptr %10, i64 56
  %12 = load ptr, ptr %11, align 8
  store ptr %12, ptr %9, align 8
  %13 = getelementptr inbounds i8, ptr %3, i64 24
  %14 = load i64, ptr %13, align 8
  %15 = and i64 %14, -897
  %16 = or disjoint i64 %15, 256
  store i64 %16, ptr %13, align 8
  %17 = getelementptr inbounds i8, ptr %0, i64 240
  %18 = load ptr, ptr %17, align 8
  %.not.i = icmp eq ptr %18, null
  br i1 %.not.i, label %.thread.i, label %22

.thread.i:                                        ; preds = %2
  %19 = getelementptr inbounds i8, ptr %0, i64 264
  %20 = load i32, ptr %19, align 8
  %21 = zext i32 %20 to i64
  br label %.preheader.preheader.i

22:                                               ; preds = %2
  %23 = getelementptr inbounds i8, ptr %18, i64 -8
  %24 = load i32, ptr %23, align 4
  %25 = zext i32 %24 to i64
  %26 = getelementptr inbounds i8, ptr %0, i64 264
  %27 = load i32, ptr %26, align 8
  %28 = zext i32 %27 to i64
  %.not31.i = icmp ugt i32 %24, %27
  br i1 %.not31.i, label %64, label %.preheader.preheader.i

.preheader.preheader.i:                           ; preds = %22, %.thread.i
  %29 = phi i64 [ %21, %.thread.i ], [ %28, %22 ]
  %30 = phi ptr [ %19, %.thread.i ], [ %26, %22 ]
  %.037.i = phi i64 [ 0, %.thread.i ], [ %25, %22 ]
  br label %.preheader.i

.preheader.i:                                     ; preds = %55, %.preheader.preheader.i
  %.02634.i = phi i64 [ %63, %55 ], [ %.037.i, %.preheader.preheader.i ]
  %31 = load ptr, ptr %17, align 8
  %.not.i.i = icmp eq ptr %31, null
  br i1 %.not.i.i, label %32, label %35

32:                                               ; preds = %.preheader.i
  %33 = tail call ptr @calloc_arena(i64 noundef 72) #10
  %34 = getelementptr inbounds i8, ptr %33, i64 4
  store i32 8, ptr %34, align 4
  br label %37

35:                                               ; preds = %.preheader.i
  %36 = getelementptr inbounds i8, ptr %31, i64 -8
  %.phi.trans.insert.i.i = getelementptr inbounds i8, ptr %31, i64 -4
  %.pre.i.i = load i32, ptr %.phi.trans.insert.i.i, align 4
  br label %37

37:                                               ; preds = %35, %32
  %38 = phi i32 [ %.pre.i.i, %35 ], [ 8, %32 ]
  %.0.i.i = phi ptr [ %36, %35 ], [ %33, %32 ]
  %39 = load i32, ptr %.0.i.i, align 4
  %40 = icmp eq i32 %39, %38
  br i1 %40, label %41, label %55

41:                                               ; preds = %37
  %42 = getelementptr inbounds i8, ptr %.0.i.i, i64 4
  %43 = shl i32 %38, 1
  %44 = zext i32 %43 to i64
  %45 = shl nuw nsw i64 %44, 3
  %46 = or disjoint i64 %45, 8
  %47 = tail call ptr @calloc_arena(i64 noundef %46) #10
  %48 = getelementptr inbounds i8, ptr %47, i64 4
  store i32 %43, ptr %48, align 4
  %49 = load i32, ptr %42, align 4
  %50 = zext i32 %49 to i64
  %51 = shl nuw nsw i64 %50, 3
  %52 = add nuw nsw i64 %51, 8
  tail call void @llvm.memcpy.p0.p0.i64(ptr noundef nonnull align 4 dereferenceable(1) %47, ptr noundef nonnull align 4 dereferenceable(1) %.0.i.i, i64 %52, i1 false)
  %53 = load i32, ptr %48, align 4
  %54 = shl i32 %53, 1
  store i32 %54, ptr %48, align 4
  %.pre18.i.i = load i32, ptr %47, align 4
  br label %55

55:                                               ; preds = %41, %37
  %56 = phi i32 [ %.pre18.i.i, %41 ], [ %39, %37 ]
  %.1.i.i = phi ptr [ %47, %41 ], [ %.0.i.i, %37 ]
  %57 = add i32 %56, 1
  store i32 %57, ptr %.1.i.i, align 4
  %58 = getelementptr inbounds i8, ptr %.1.i.i, i64 8
  store ptr %58, ptr %17, align 8
  %59 = load i32, ptr %.1.i.i, align 4
  %60 = add i32 %59, -1
  %61 = zext i32 %60 to i64
  %62 = getelementptr inbounds ptr, ptr %58, i64 %61
  store ptr %3, ptr %62, align 8
  %63 = add nuw nsw i64 %.02634.i, 1
  %exitcond.not.i = icmp eq i64 %.02634.i, %29
  br i1 %exitcond.not.i, label %sema_append_local.exit, label %.preheader.i, !llvm.loop !33

64:                                               ; preds = %22
  %65 = getelementptr inbounds ptr, ptr %18, i64 %28
  store ptr %3, ptr %65, align 8
  br label %sema_append_local.exit

sema_append_local.exit:                           ; preds = %55, %64
  %66 = phi ptr [ %26, %64 ], [ %30, %55 ]
  %67 = load i32, ptr %66, align 8
  %68 = add i32 %67, 1
  store i32 %68, ptr %66, align 8
  ret void
}